target datalayout = "e-m:e-p270:32:32-p271:32:32-p272:64:64-i64:64-i128:128-f80:128-n8:16:32:64-S128"
target triple = "x86_64-pc-linux-gnu"

@hf_telnet_outmark_subopt_cmd = internal global i32 0, align 4
@hf_telnet_outmark_subopt_banner = internal global i32 0, align 4

; Function Attrs: null_pointer_is_valid sspstrong uwtable
define internal void @dissect_outmark_subopt(ptr noundef %0, ptr noundef %1, ptr noundef %2, i32 noundef %3, i32 noundef %4, ptr noundef %5, ptr noundef %6) #0 {
  %8 = alloca ptr, align 8
  %9 = alloca ptr, align 8
  %10 = alloca ptr, align 8
  %11 = alloca i32, align 4
  %12 = alloca i32, align 4
  %13 = alloca ptr, align 8
  %14 = alloca ptr, align 8
  %15 = alloca i32, align 4
  %16 = alloca i32, align 4
  store ptr %0, ptr %8, align 8
  store ptr %1, ptr %9, align 8
  store ptr %2, ptr %10, align 8
  store i32 %3, ptr %11, align 4
  store i32 %4, ptr %12, align 4
  store ptr %5, ptr %13, align 8
  store ptr %6, ptr %14, align 8
  call void @llvm.lifetime.start.p0(i64 4, ptr %15) #7
  call void @llvm.lifetime.start.p0(i64 4, ptr %16) #7
  br label %17

17:                                               ; preds = %59, %7
  %18 = load i32, ptr %12, align 4
  %19 = icmp sgt i32 %18, 0
  br i1 %19, label %20, label %60

20:                                               ; preds = %17
  %21 = load ptr, ptr %13, align 8
  %22 = load i32, ptr @hf_telnet_outmark_subopt_cmd, align 4
  %23 = load ptr, ptr %10, align 8
  %24 = load i32, ptr %11, align 4
  %25 = call ptr @proto_tree_add_item(ptr noundef %21, i32 noundef %22, ptr noundef %23, i32 noundef %24, i32 noundef 1, i32 noundef 0)
  %26 = load i32, ptr %11, align 4
  %27 = add i32 %26, 1
  store i32 %27, ptr %11, align 4
  %28 = load i32, ptr %12, align 4
  %29 = add i32 %28, -1
  store i32 %29, ptr %12, align 4
  %30 = load ptr, ptr %10, align 8
  %31 = load i32, ptr %11, align 4
  %32 = load i32, ptr %12, align 4
  %33 = call i32 @tvb_find_uint8(ptr noundef %30, i32 noundef %31, i32 noundef %32, i8 noundef zeroext 29)
  store i32 %33, ptr %15, align 4
  %34 = load i32, ptr %15, align 4
  %35 = icmp eq i32 %34, -1
  br i1 %35, label %36, label %40

36:                                               ; preds = %20
  %37 = load i32, ptr %11, align 4
  %38 = load i32, ptr %12, align 4
  %39 = add i32 %37, %38
  store i32 %39, ptr %15, align 4
  br label %40

40:                                               ; preds = %36, %20
  %41 = load i32, ptr %15, align 4
  %42 = load i32, ptr %11, align 4
  %43 = sub i32 %41, %42
  store i32 %43, ptr %16, align 4
  %44 = load i32, ptr %16, align 4
  %45 = icmp sgt i32 %44, 0
  br i1 %45, label %46, label %59

46:                                               ; preds = %40
  %47 = load ptr, ptr %13, align 8
  %48 = load i32, ptr @hf_telnet_outmark_subopt_banner, align 4
  %49 = load ptr, ptr %10, align 8
  %50 = load i32, ptr %11, align 4
  %51 = load i32, ptr %16, align 4
  %52 = call ptr @proto_tree_add_item(ptr noundef %47, i32 noundef %48, ptr noundef %49, i32 noundef %50, i32 noundef %51, i32 noundef 0)
  %53 = load i32, ptr %16, align 4
  %54 = load i32, ptr %11, align 4
  %55 = add i32 %54, %53
  store i32 %55, ptr %11, align 4
  %56 = load i32, ptr %16, align 4
  %57 = load i32, ptr %12, align 4
  %58 = sub i32 %57, %56
  store i32 %58, ptr %12, align 4
  br label %59

59:                                               ; preds = %46, %40
  br label %17, !llvm.loop !15

60:                                               ; preds = %17
  call void @llvm.lifetime.end.p0(i64 4, ptr %16) #7
  call void @llvm.lifetime.end.p0(i64 4, ptr %15) #7
  ret void
}