; Function Attrs: null_pointer_is_valid sspstrong uwtable
define internal void @dissect_outmark_subopt(ptr readnone captures(none) %0, ptr readnone captures(none) %1, ptr noundef %2, i32 noundef %3, i32 noundef %4, ptr noundef %5, ptr readnone captures(none) %6) #0 {
  %8 = icmp sgt i32 %4, 0
  br i1 %8, label %.lr.ph, label %._crit_edge

.lr.ph:                                           ; preds = %7, %22
  %.028 = phi i32 [ %.1, %22 ], [ %3, %7 ]
  %.02327 = phi i32 [ %.124, %22 ], [ %4, %7 ]
  %9 = load i32, ptr @hf_telnet_outmark_subopt_cmd, align 4
  %10 = tail call ptr @proto_tree_add_item(ptr noundef %5, i32 noundef %9, ptr noundef %2, i32 noundef %.028, i32 noundef 1, i32 noundef 0)
  %11 = add i32 %.028, 1
  %12 = add nsw i32 %.02327, -1
  %13 = tail call i32 @tvb_find_uint8(ptr noundef %2, i32 noundef %11, i32 noundef %12, i8 noundef zeroext 29)
  %14 = icmp eq i32 %13, -1
  %15 = add i32 %.028, %.02327
  %spec.select = select i1 %14, i32 %15, i32 %13
  %16 = sub i32 %spec.select, %11
  %17 = icmp sgt i32 %16, 0
  br i1 %17, label %18, label %22

18:                                               ; preds = %.lr.ph
  %19 = load i32, ptr @hf_telnet_outmark_subopt_banner, align 4
  %20 = tail call ptr @proto_tree_add_item(ptr noundef %5, i32 noundef %19, ptr noundef %2, i32 noundef %11, i32 noundef %16, i32 noundef 0)
  %21 = sub nsw i32 %12, %16
  br label %22

22:                                               ; preds = %18, %.lr.ph
  %.124 = phi i32 [ %21, %18 ], [ %12, %.lr.ph ]
  %.1 = phi i32 [ %spec.select, %18 ], [ %11, %.lr.ph ]
  %23 = icmp sgt i32 %.124, 0
  br i1 %23, label %.lr.ph, label %._crit_edge, !llvm.loop !14

._crit_edge:                                      ; preds = %22, %7
  ret void
}